; Function Attrs: nounwind uwtable
define zeroext range(i8 0, 2) i8 @l_Lean_Compiler_LCNF_Specialize_Collector_collect___lambda__1(ptr noundef readonly captures(none) %0, ptr noundef readonly captures(none) %1, ptr noundef %2) local_unnamed_addr #0 {
lean_dec.exit34:
  %3 = getelementptr inbounds nuw i8, ptr %0, i64 24
  %4 = load ptr, ptr %3, align 8, !tbaa !4
  %5 = getelementptr inbounds nuw i8, ptr %4, i64 16
  %6 = load ptr, ptr %5, align 8, !tbaa !4
  %7 = getelementptr i8, ptr %6, i64 8
  %.val = load i64, ptr %7, align 8, !tbaa !12
  %8 = and i64 %.val, 9223372036854775807
  %9 = tail call i64 @l___private_Lean_Expr_0__Lean_hashFVarId____x40_Lean_Expr___hyg_1730_(ptr noundef %2) #4
  %10 = lshr i64 %9, 32
  %11 = xor i64 %10, %9
  %12 = lshr i64 %11, 16
  %13 = xor i64 %12, %11
  %14 = add nsw i64 %8, -1
  %15 = and i64 %13, %14
  %16 = getelementptr inbounds nuw i8, ptr %6, i64 24
  %17 = getelementptr inbounds nuw [0 x ptr], ptr %16, i64 0, i64 %15
  %18 = load ptr, ptr %17, align 8, !tbaa !4
  %19 = ptrtoint ptr %18 to i64
  %20 = and i64 %19, 1
  %.not.i40 = icmp eq i64 %20, 0
  br i1 %.not.i40, label %21, label %lean_array_uget.exit

21:                                               ; preds = %lean_dec.exit34
  %.val.i.i = load i32, ptr %18, align 4, !tbaa !8
  %22 = icmp sgt i32 %.val.i.i, 0
  br i1 %22, label %23, label %25, !prof !11

23:                                               ; preds = %21
  %24 = add nuw i32 %.val.i.i, 1
  store i32 %24, ptr %18, align 4, !tbaa !8
  br label %28

25:                                               ; preds = %21
  %.not.i.i = icmp eq i32 %.val.i.i, 0
  br i1 %.not.i.i, label %28, label %26

26:                                               ; preds = %25
  tail call void @lean_inc_ref_cold(ptr noundef nonnull %18) #4
  br label %28

lean_array_uget.exit:                             ; preds = %lean_dec.exit34
  %27 = tail call zeroext i8 @l_Std_DHashMap_Internal_AssocList_contains___at_Lean_Compiler_LCNF_LCtx_addFunDecl___spec__1(ptr noundef %2, ptr noundef %18) #4
  br label %lean_dec.exit33

28:                                               ; preds = %23, %25, %26
  %29 = tail call zeroext i8 @l_Std_DHashMap_Internal_AssocList_contains___at_Lean_Compiler_LCNF_LCtx_addFunDecl___spec__1(ptr noundef %2, ptr noundef nonnull %18) #4
  %30 = load i32, ptr %18, align 4, !tbaa !8
  %31 = icmp sgt i32 %30, 1
  br i1 %31, label %32, label %34, !prof !11

32:                                               ; preds = %28
  %33 = add nsw i32 %30, -1
  store i32 %33, ptr %18, align 4, !tbaa !8
  br label %lean_dec.exit33

34:                                               ; preds = %28
  %.not.i35 = icmp eq i32 %30, 0
  br i1 %.not.i35, label %lean_dec.exit33, label %35

35:                                               ; preds = %34
  tail call void @lean_dec_ref_cold(ptr noundef nonnull %18) #4
  br label %lean_dec.exit33

lean_dec.exit33:                                  ; preds = %35, %34, %32, %lean_array_uget.exit
  %36 = phi i8 [ %27, %lean_array_uget.exit ], [ %29, %32 ], [ %29, %34 ], [ %29, %35 ]
  %37 = icmp eq i8 %36, 0
  br i1 %37, label %38, label %lean_dec.exit

38:                                               ; preds = %lean_dec.exit33
  %39 = getelementptr inbounds nuw i8, ptr %1, i64 16
  %40 = load ptr, ptr %39, align 8, !tbaa !4
  %41 = tail call ptr @l_Lean_RBNode_findCore___at___private_Lean_Meta_FunInfo_0__Lean_Meta_getFunInfoAux___spec__2(ptr noundef %40, ptr noundef %2) #4
  %42 = ptrtoint ptr %41 to i64
  %43 = and i64 %42, 1
  %.not.i41 = icmp eq i64 %43, 0
  br i1 %.not.i41, label %lean_obj_tag.exit.thread, label %lean_obj_tag.exit

lean_obj_tag.exit:                                ; preds = %38
  %44 = and i64 %42, 8589934590
  %45 = icmp eq i64 %44, 0
  %spec.select = zext i1 %45 to i8
  br label %lean_dec.exit

lean_obj_tag.exit.thread:                         ; preds = %38
  %46 = getelementptr i8, ptr %41, i64 4
  %.val.i = load i32, ptr %46, align 4
  %47 = icmp ult i32 %.val.i, 16777216
  br i1 %47, label %lean_dec.exit, label %.thread

.thread:                                          ; preds = %lean_obj_tag.exit.thread
  %48 = load i32, ptr %41, align 4, !tbaa !8
  %49 = icmp sgt i32 %48, 1
  br i1 %49, label %50, label %52, !prof !11

50:                                               ; preds = %.thread
  %51 = add nsw i32 %48, -1
  store i32 %51, ptr %41, align 4, !tbaa !8
  br label %lean_dec.exit

52:                                               ; preds = %.thread
  %.not.i37 = icmp eq i32 %48, 0
  br i1 %.not.i37, label %lean_dec.exit, label %53

53:                                               ; preds = %52
  tail call void @lean_dec_ref_cold(ptr noundef nonnull %41) #4
  br label %lean_dec.exit

lean_dec.exit:                                    ; preds = %lean_obj_tag.exit, %50, %52, %53, %lean_obj_tag.exit.thread, %lean_dec.exit33
  %.1 = phi i8 [ 0, %lean_dec.exit33 ], [ 1, %lean_obj_tag.exit.thread ], [ 0, %53 ], [ 0, %52 ], [ 0, %50 ], [ %spec.select, %lean_obj_tag.exit ]
  ret i8 %.1
}